target datalayout = "e-m:e-p270:32:32-p271:32:32-p272:64:64-i64:64-i128:128-f80:128-n8:16:32:64-S128"
target triple = "x86_64-pc-linux-gnu"

%struct.t_trxframe = type { i32, i8, i32, i8, i64, i8, float, i8, i8, float, i32, i8, ptr, i8, float, i8, ptr, i8, ptr, i8, ptr, i8, [3 x [3 x float]], i8, i32, i8, ptr }
%"class.gmx::TrajectoryFrame" = type <{ ptr, %"struct.std::array", [4 x i8] }>
%"struct.std::array" = type { [3 x %"struct.std::array.0"] }
%"struct.std::array.0" = type { [3 x float] }
%"class.gmx::ArrayRef" = type { %"struct.gmx::ArrayRefIter", %"struct.gmx::ArrayRefIter" }
%"struct.gmx::ArrayRefIter" = type { ptr }
%"class.gmx::ArrayRef.6" = type { %"struct.gmx::ArrayRefIter.7", %"struct.gmx::ArrayRefIter.7" }
%"struct.gmx::ArrayRefIter.7" = type { ptr }
%"class.gmx::BasicVector" = type { [3 x float] }

; Function Attrs: mustprogress nounwind uwtable
define linkonce_odr noundef i64 @_ZNK3gmx12ArrayRefIterINS_11BasicVectorIfEEEmiES3_(ptr noundef nonnull align 8 dereferenceable(8) %0, ptr %1) #7 comdat align 2 {
  %3 = alloca %"struct.gmx::ArrayRefIter.7", align 8
  %4 = alloca ptr, align 8
  %5 = getelementptr inbounds nuw %"struct.gmx::ArrayRefIter.7", ptr %3, i32 0, i32 0
  store ptr %1, ptr %5, align 8
  store ptr %0, ptr %4, align 8, !tbaa !180
  %6 = load ptr, ptr %4, align 8
  %7 = getelementptr inbounds nuw %"struct.gmx::ArrayRefIter.7", ptr %6, i32 0, i32 0
  %8 = load ptr, ptr %7, align 8, !tbaa !182
  %9 = getelementptr inbounds nuw %"struct.gmx::ArrayRefIter.7", ptr %3, i32 0, i32 0
  %10 = load ptr, ptr %9, align 8, !tbaa !182
  %11 = ptrtoint ptr %8 to i64
  %12 = ptrtoint ptr %10 to i64
  %13 = sub i64 %11, %12
  %14 = sdiv exact i64 %13, 12
  ret i64 %14
}

; Function Attrs: mustprogress nounwind uwtable
define linkonce_odr noundef ptr @_ZNK3gmx12ArrayRefIterINS_11BasicVectorIfEEE4dataEv(ptr noundef nonnull align 8 dereferenceable(8) %0) #7 comdat align 2 {
  %2 = alloca ptr, align 8
  store ptr %0, ptr %2, align 8, !tbaa !180
  %3 = load ptr, ptr %2, align 8
  %4 = getelementptr inbounds nuw %"struct.gmx::ArrayRefIter.7", ptr %3, i32 0, i32 0
  %5 = load ptr, ptr %4, align 8, !tbaa !182
  ret ptr %5
}

; Function Attrs: mustprogress nounwind uwtable
define linkonce_odr void @_ZN3gmx12ArrayRefIterINS_11BasicVectorIfEEEC2EPS2_(ptr noundef nonnull align 8 dereferenceable(8) %0, ptr noundef %1) unnamed_addr #7 comdat align 2 {
  %3 = alloca ptr, align 8
  %4 = alloca ptr, align 8
  store ptr %0, ptr %3, align 8, !tbaa !180
  store ptr %1, ptr %4, align 8, !tbaa !174
  %5 = load ptr, ptr %3, align 8
  %6 = getelementptr inbounds nuw %"struct.gmx::ArrayRefIter.7", ptr %5, i32 0, i32 0
  %7 = load ptr, ptr %4, align 8, !tbaa !174
  store ptr %7, ptr %6, align 8, !tbaa !182
  ret void
}

; Function Attrs: mustprogress nounwind uwtable
define linkonce_odr noundef i64 @_ZNK3gmx8ArrayRefINS_11BasicVectorIfEEE4sizeEv(ptr noundef nonnull align 8 dereferenceable(16) %0) #7 comdat align 2 {
  %2 = alloca ptr, align 8
  %3 = alloca %"struct.gmx::ArrayRefIter.7", align 8
  store ptr %0, ptr %2, align 8, !tbaa !178
  %4 = load ptr, ptr %2, align 8
  %5 = getelementptr inbounds nuw %"class.gmx::ArrayRef.6", ptr %4, i32 0, i32 1
  %6 = getelementptr inbounds nuw %"class.gmx::ArrayRef.6", ptr %4, i32 0, i32 0
  call void @llvm.memcpy.p0.p0.i64(ptr align 8 %3, ptr align 8 %6, i64 8, i1 false)
  %7 = getelementptr inbounds nuw %"struct.gmx::ArrayRefIter.7", ptr %3, i32 0, i32 0
  %8 = load ptr, ptr %7, align 8
  %9 = call noundef i64 @_ZNK3gmx12ArrayRefIterINS_11BasicVectorIfEEEmiES3_(ptr noundef nonnull align 8 dereferenceable(8) %5, ptr %8) #17
  ret i64 %9
}

; Function Attrs: mustprogress nounwind uwtable
define linkonce_odr void @_ZN3gmx12ArrayRefIterIKNS_11BasicVectorIfEEEC2EPS3_(ptr noundef nonnull align 8 dereferenceable(8) %0, ptr noundef %1) unnamed_addr #7 comdat align 2 {
  %3 = alloca ptr, align 8
  %4 = alloca ptr, align 8
  store ptr %0, ptr %3, align 8, !tbaa !184
  store ptr %1, ptr %4, align 8, !tbaa !174
  %5 = load ptr, ptr %3, align 8
  %6 = getelementptr inbounds nuw %"struct.gmx::ArrayRefIter", ptr %5, i32 0, i32 0
  %7 = load ptr, ptr %4, align 8, !tbaa !174
  store ptr %7, ptr %6, align 8, !tbaa !186
  ret void
}

; Function Attrs: mustprogress nounwind uwtable
define linkonce_odr noundef ptr @_ZNK3gmx8ArrayRefINS_11BasicVectorIfEEE4dataEv(ptr noundef nonnull align 8 dereferenceable(16) %0) #7 comdat align 2 {
  %2 = alloca ptr, align 8
  store ptr %0, ptr %2, align 8, !tbaa !178
  %3 = load ptr, ptr %2, align 8
  %4 = getelementptr inbounds nuw %"class.gmx::ArrayRef.6", ptr %3, i32 0, i32 0
  %5 = call noundef ptr @_ZNK3gmx12ArrayRefIterINS_11BasicVectorIfEEE4dataEv(ptr noundef nonnull align 8 dereferenceable(8) %4) #17
  ret ptr %5
}

; Function Attrs: mustprogress nounwind uwtable
define linkonce_odr void @_ZN3gmx8ArrayRefINS_11BasicVectorIfEEEC2Ev(ptr noundef nonnull align 8 dereferenceable(16) %0) unnamed_addr #7 comdat align 2 {
  %2 = alloca ptr, align 8
  store ptr %0, ptr %2, align 8, !tbaa !178
  %3 = load ptr, ptr %2, align 8
  %4 = getelementptr inbounds nuw %"class.gmx::ArrayRef.6", ptr %3, i32 0, i32 0
  call void @_ZN3gmx12ArrayRefIterINS_11BasicVectorIfEEEC2EPS2_(ptr noundef nonnull align 8 dereferenceable(8) %4, ptr noundef null) #17
  %5 = getelementptr inbounds nuw %"class.gmx::ArrayRef.6", ptr %3, i32 0, i32 1
  call void @_ZN3gmx12ArrayRefIterINS_11BasicVectorIfEEEC2EPS2_(ptr noundef nonnull align 8 dereferenceable(8) %5, ptr noundef null) #17
  ret void
}

; Function Attrs: mustprogress nounwind uwtable
define linkonce_odr void @_ZN3gmx8ArrayRefINS_11BasicVectorIfEEEC2EPS2_S4_(ptr noundef nonnull align 8 dereferenceable(16) %0, ptr noundef %1, ptr noundef %2) unnamed_addr #7 comdat align 2 {
  %4 = alloca ptr, align 8
  %5 = alloca ptr, align 8
  %6 = alloca ptr, align 8
  store ptr %0, ptr %4, align 8, !tbaa !178
  store ptr %1, ptr %5, align 8, !tbaa !174
  store ptr %2, ptr %6, align 8, !tbaa !174
  %7 = load ptr, ptr %4, align 8
  %8 = getelementptr inbounds nuw %"class.gmx::ArrayRef.6", ptr %7, i32 0, i32 0
  %9 = load ptr, ptr %5, align 8, !tbaa !174
  call void @_ZN3gmx12ArrayRefIterINS_11BasicVectorIfEEEC2EPS2_(ptr noundef nonnull align 8 dereferenceable(8) %8, ptr noundef %9) #17
  %10 = getelementptr inbounds nuw %"class.gmx::ArrayRef.6", ptr %7, i32 0, i32 1
  %11 = load ptr, ptr %6, align 8, !tbaa !174
  call void @_ZN3gmx12ArrayRefIterINS_11BasicVectorIfEEEC2EPS2_(ptr noundef nonnull align 8 dereferenceable(8) %10, ptr noundef %11) #17
  ret void
}

; Function Attrs: mustprogress nounwind uwtable
define linkonce_odr void @_ZN3gmx8ArrayRefIKNS_11BasicVectorIfEEEC2Ev(ptr noundef nonnull align 8 dereferenceable(16) %0) unnamed_addr #7 comdat align 2 {
  %2 = alloca ptr, align 8
  store ptr %0, ptr %2, align 8, !tbaa !176
  %3 = load ptr, ptr %2, align 8
  %4 = getelementptr inbounds nuw %"class.gmx::ArrayRef", ptr %3, i32 0, i32 0
  call void @_ZN3gmx12ArrayRefIterIKNS_11BasicVectorIfEEEC2EPS3_(ptr noundef nonnull align 8 dereferenceable(8) %4, ptr noundef null) #17
  %5 = getelementptr inbounds nuw %"class.gmx::ArrayRef", ptr %3, i32 0, i32 1
  call void @_ZN3gmx12ArrayRefIterIKNS_11BasicVectorIfEEEC2EPS3_(ptr noundef nonnull align 8 dereferenceable(8) %5, ptr noundef null) #17
  ret void
}

; Function Attrs: mustprogress uwtable
define linkonce_odr void @_ZN3gmx8ArrayRefIKNS_11BasicVectorIfEEEC2INS0_IS2_EEvEEOT_(ptr noundef nonnull align 8 dereferenceable(16) %0, ptr noundef nonnull align 8 dereferenceable(16) %1) unnamed_addr #0 comdat align 2 {
  %3 = alloca ptr, align 8
  %4 = alloca ptr, align 8
  store ptr %0, ptr %3, align 8, !tbaa !176
  store ptr %1, ptr %4, align 8, !tbaa !178
  %5 = load ptr, ptr %3, align 8
  %6 = getelementptr inbounds nuw %"class.gmx::ArrayRef", ptr %5, i32 0, i32 0
  %7 = load ptr, ptr %4, align 8, !tbaa !178
  %8 = call noundef ptr @_ZNK3gmx8ArrayRefINS_11BasicVectorIfEEE4dataEv(ptr noundef nonnull align 8 dereferenceable(16) %7)
  call void @_ZN3gmx12ArrayRefIterIKNS_11BasicVectorIfEEEC2EPS3_(ptr noundef nonnull align 8 dereferenceable(8) %6, ptr noundef %8) #17
  %9 = getelementptr inbounds nuw %"class.gmx::ArrayRef", ptr %5, i32 0, i32 1
  %10 = load ptr, ptr %4, align 8, !tbaa !178
  %11 = call noundef ptr @_ZNK3gmx8ArrayRefINS_11BasicVectorIfEEE4dataEv(ptr noundef nonnull align 8 dereferenceable(16) %10)
  %12 = load ptr, ptr %4, align 8, !tbaa !178
  %13 = call noundef i64 @_ZNK3gmx8ArrayRefINS_11BasicVectorIfEEE4sizeEv(ptr noundef nonnull align 8 dereferenceable(16) %12)
  %14 = getelementptr inbounds nuw %"class.gmx::BasicVector", ptr %11, i64 %13
  call void @_ZN3gmx12ArrayRefIterIKNS_11BasicVectorIfEEEC2EPS3_(ptr noundef nonnull align 8 dereferenceable(8) %9, ptr noundef %14) #17
  ret void
}

; Function Attrs: mustprogress uwtable
define linkonce_odr { ptr, ptr } @_ZN3gmx17arrayRefFromArrayINS_11BasicVectorIfEEEENS_8ArrayRefIT_EEPS4_m(ptr noundef %0, i64 noundef %1) #0 comdat {
  %3 = alloca %"class.gmx::ArrayRef.6", align 8
  %4 = alloca ptr, align 8
  %5 = alloca i64, align 8
  store ptr %0, ptr %4, align 8, !tbaa !174
  store i64 %1, ptr %5, align 8, !tbaa !73
  %6 = load ptr, ptr %4, align 8, !tbaa !174
  %7 = icmp ne ptr %6, null
  br i1 %7, label %8, label %13

8:                                                ; preds = %2
  %9 = load ptr, ptr %4, align 8, !tbaa !174
  %10 = load ptr, ptr %4, align 8, !tbaa !174
  %11 = load i64, ptr %5, align 8, !tbaa !73
  %12 = getelementptr inbounds nuw %"class.gmx::BasicVector", ptr %10, i64 %11
  call void @_ZN3gmx8ArrayRefINS_11BasicVectorIfEEEC2EPS2_S4_(ptr noundef nonnull align 8 dereferenceable(16) %3, ptr noundef %9, ptr noundef %12)
  br label %14

13:                                               ; preds = %2
  call void @_ZN3gmx8ArrayRefINS_11BasicVectorIfEEEC2Ev(ptr noundef nonnull align 8 dereferenceable(16) %3)
  br label %14

14:                                               ; preds = %13, %8
  %15 = load { ptr, ptr }, ptr %3, align 8
  ret { ptr, ptr } %15
}

; Function Attrs: mustprogress uwtable
define { ptr, ptr } @_ZNK3gmx15TrajectoryFrame1fEv(ptr noundef nonnull align 8 dereferenceable(44) %0) #0 align 2 {
  %2 = alloca %"class.gmx::ArrayRef", align 8
  %3 = alloca ptr, align 8
  %4 = alloca %"class.gmx::ArrayRef.6", align 8
  store ptr %0, ptr %3, align 8, !tbaa !49
  %5 = load ptr, ptr %3, align 8
  %6 = getelementptr inbounds nuw %"class.gmx::TrajectoryFrame", ptr %5, i32 0, i32 0
  %7 = load ptr, ptr %6, align 8, !tbaa !170
  %8 = getelementptr inbounds nuw %struct.t_trxframe, ptr %7, i32 0, i32 19
  %9 = load i8, ptr %8, align 8, !tbaa !41, !range !25, !noundef !26
  %10 = trunc i8 %9 to i1
  br i1 %10, label %11, label %26

11:                                               ; preds = %1
  call void @llvm.lifetime.start.p0(i64 16, ptr %4) #17
  %12 = getelementptr inbounds nuw %"class.gmx::TrajectoryFrame", ptr %5, i32 0, i32 0
  %13 = load ptr, ptr %12, align 8, !tbaa !170
  %14 = getelementptr inbounds nuw %struct.t_trxframe, ptr %13, i32 0, i32 20
  %15 = load ptr, ptr %14, align 8, !tbaa !42
  %16 = getelementptr inbounds nuw %"class.gmx::TrajectoryFrame", ptr %5, i32 0, i32 0
  %17 = load ptr, ptr %16, align 8, !tbaa !170
  %18 = getelementptr inbounds nuw %struct.t_trxframe, ptr %17, i32 0, i32 2
  %19 = load i32, ptr %18, align 8, !tbaa !23
  %20 = sext i32 %19 to i64
  %21 = call { ptr, ptr } @_ZN3gmx17arrayRefFromArrayINS_11BasicVectorIfEEEENS_8ArrayRefIT_EEPS4_m(ptr noundef %15, i64 noundef %20)
  %22 = getelementptr inbounds nuw { ptr, ptr }, ptr %4, i32 0, i32 0
  %23 = extractvalue { ptr, ptr } %21, 0
  store ptr %23, ptr %22, align 8
  %24 = getelementptr inbounds nuw { ptr, ptr }, ptr %4, i32 0, i32 1
  %25 = extractvalue { ptr, ptr } %21, 1
  store ptr %25, ptr %24, align 8
  call void @_ZN3gmx8ArrayRefIKNS_11BasicVectorIfEEEC2INS0_IS2_EEvEEOT_(ptr noundef nonnull align 8 dereferenceable(16) %2, ptr noundef nonnull align 8 dereferenceable(16) %4)
  call void @llvm.lifetime.end.p0(i64 16, ptr %4) #17
  br label %27

26:                                               ; preds = %1
  call void @_ZN3gmx8ArrayRefIKNS_11BasicVectorIfEEEC2Ev(ptr noundef nonnull align 8 dereferenceable(16) %2)
  br label %27

27:                                               ; preds = %26, %11
  %28 = load { ptr, ptr }, ptr %2, align 8
  ret { ptr, ptr } %28
}