; Function Attrs: mustprogress nofree norecurse nosync nounwind willreturn memory(read, inaccessiblemem: none) uwtable
define { ptr, ptr } @_ZNK3gmx15TrajectoryFrame1fEv(ptr noundef nonnull readonly align 8 captures(none) dereferenceable(44) %0) local_unnamed_addr #15 align 2 {
  %2 = load ptr, ptr %0, align 8, !tbaa !79
  %3 = getelementptr inbounds nuw i8, ptr %2, i64 96
  %4 = load i8, ptr %3, align 8, !tbaa !35, !range !19, !noundef !20
  %5 = trunc nuw i8 %4 to i1
  br i1 %5, label %6, label %17

6:                                                ; preds = %1
  %7 = getelementptr inbounds nuw i8, ptr %2, i64 104
  %8 = load ptr, ptr %7, align 8, !tbaa !36
  %9 = getelementptr inbounds nuw i8, ptr %2, i64 8
  %10 = load i32, ptr %9, align 8, !tbaa !17
  %11 = sext i32 %10 to i64
  %.not.i = icmp eq ptr %8, null
  %12 = getelementptr inbounds nuw %"class.gmx::BasicVector", ptr %8, i64 %11
  %spec.select.i = select i1 %.not.i, ptr null, ptr %12
  %13 = ptrtoint ptr %spec.select.i to i64
  %14 = ptrtoint ptr %8 to i64
  %15 = sub i64 %13, %14
  %16 = getelementptr inbounds nuw i8, ptr %8, i64 %15
  br label %17

17:                                               ; preds = %1, %6
  %.sroa.3.0 = phi ptr [ %16, %6 ], [ null, %1 ]
  %.sroa.01.0 = phi ptr [ %8, %6 ], [ null, %1 ]
  %.fca.0.insert = insertvalue { ptr, ptr } poison, ptr %.sroa.01.0, 0
  %.fca.1.insert = insertvalue { ptr, ptr } %.fca.0.insert, ptr %.sroa.3.0, 1
  ret { ptr, ptr } %.fca.1.insert
}